target datalayout = "e-m:e-p270:32:32-p271:32:32-p272:64:64-i64:64-i128:128-f80:128-n8:16:32:64-S128"
target triple = "x86_64-pc-linux-gnu"

%struct.Io_MvMan_t_ = type { i32, i32, ptr, ptr, ptr, ptr, i32, ptr, ptr, ptr, ptr, ptr, [512 x i8], i32, i32 }
%struct.Io_MvMod_t_ = type { ptr, ptr, ptr, ptr, ptr, ptr, ptr, ptr, ptr, ptr, ptr, ptr, ptr, i32, ptr, ptr, ptr }
%struct.Vec_Ptr_t_ = type { i32, i32, ptr }
%struct.Vec_Str_t_ = type { i32, i32, ptr }

; Function Attrs: inlinehint nounwind uwtable
define internal void @Vec_StrFree(ptr noundef %0) #4 {
  %2 = alloca ptr, align 8
  store ptr %0, ptr %2, align 8, !tbaa !135
  %3 = load ptr, ptr %2, align 8, !tbaa !135
  %4 = getelementptr inbounds nuw %struct.Vec_Str_t_, ptr %3, i32 0, i32 2
  %5 = load ptr, ptr %4, align 8, !tbaa !139
  %6 = icmp ne ptr %5, null
  br i1 %6, label %7, label %13

7:                                                ; preds = %1
  %8 = load ptr, ptr %2, align 8, !tbaa !135
  %9 = getelementptr inbounds nuw %struct.Vec_Str_t_, ptr %8, i32 0, i32 2
  %10 = load ptr, ptr %9, align 8, !tbaa !139
  call void @free(ptr noundef %10) #12
  %11 = load ptr, ptr %2, align 8, !tbaa !135
  %12 = getelementptr inbounds nuw %struct.Vec_Str_t_, ptr %11, i32 0, i32 2
  store ptr null, ptr %12, align 8, !tbaa !139
  br label %14

13:                                               ; preds = %1
  br label %14

14:                                               ; preds = %13, %7
  %15 = load ptr, ptr %2, align 8, !tbaa !135
  %16 = icmp ne ptr %15, null
  br i1 %16, label %17, label %19

17:                                               ; preds = %14
  %18 = load ptr, ptr %2, align 8, !tbaa !135
  call void @free(ptr noundef %18) #12
  store ptr null, ptr %2, align 8, !tbaa !135
  br label %20

19:                                               ; preds = %14
  br label %20

20:                                               ; preds = %19, %17
  ret void
}

; Function Attrs: nounwind uwtable
define internal void @Io_MvModFree(ptr noundef %0) #0 {
  %2 = alloca ptr, align 8
  store ptr %0, ptr %2, align 8, !tbaa !59
  %3 = load ptr, ptr %2, align 8, !tbaa !59
  %4 = getelementptr inbounds nuw %struct.Io_MvMod_t_, ptr %3, i32 0, i32 12
  %5 = load ptr, ptr %4, align 8, !tbaa !72
  call void @Vec_PtrFree(ptr noundef %5)
  %6 = load ptr, ptr %2, align 8, !tbaa !59
  %7 = getelementptr inbounds nuw %struct.Io_MvMod_t_, ptr %6, i32 0, i32 1
  %8 = load ptr, ptr %7, align 8, !tbaa !76
  call void @Vec_PtrFree(ptr noundef %8)
  %9 = load ptr, ptr %2, align 8, !tbaa !59
  %10 = getelementptr inbounds nuw %struct.Io_MvMod_t_, ptr %9, i32 0, i32 2
  %11 = load ptr, ptr %10, align 8, !tbaa !77
  call void @Vec_PtrFree(ptr noundef %11)
  %12 = load ptr, ptr %2, align 8, !tbaa !59
  %13 = getelementptr inbounds nuw %struct.Io_MvMod_t_, ptr %12, i32 0, i32 3
  %14 = load ptr, ptr %13, align 8, !tbaa !73
  call void @Vec_PtrFree(ptr noundef %14)
  %15 = load ptr, ptr %2, align 8, !tbaa !59
  %16 = getelementptr inbounds nuw %struct.Io_MvMod_t_, ptr %15, i32 0, i32 4
  %17 = load ptr, ptr %16, align 8, !tbaa !74
  call void @Vec_PtrFree(ptr noundef %17)
  %18 = load ptr, ptr %2, align 8, !tbaa !59
  %19 = getelementptr inbounds nuw %struct.Io_MvMod_t_, ptr %18, i32 0, i32 5
  %20 = load ptr, ptr %19, align 8, !tbaa !75
  call void @Vec_PtrFree(ptr noundef %20)
  %21 = load ptr, ptr %2, align 8, !tbaa !59
  %22 = getelementptr inbounds nuw %struct.Io_MvMod_t_, ptr %21, i32 0, i32 6
  %23 = load ptr, ptr %22, align 8, !tbaa !69
  call void @Vec_PtrFree(ptr noundef %23)
  %24 = load ptr, ptr %2, align 8, !tbaa !59
  %25 = getelementptr inbounds nuw %struct.Io_MvMod_t_, ptr %24, i32 0, i32 7
  %26 = load ptr, ptr %25, align 8, !tbaa !78
  call void @Vec_PtrFree(ptr noundef %26)
  %27 = load ptr, ptr %2, align 8, !tbaa !59
  %28 = getelementptr inbounds nuw %struct.Io_MvMod_t_, ptr %27, i32 0, i32 8
  %29 = load ptr, ptr %28, align 8, !tbaa !79
  call void @Vec_PtrFree(ptr noundef %29)
  %30 = load ptr, ptr %2, align 8, !tbaa !59
  %31 = getelementptr inbounds nuw %struct.Io_MvMod_t_, ptr %30, i32 0, i32 9
  %32 = load ptr, ptr %31, align 8, !tbaa !80
  call void @Vec_PtrFree(ptr noundef %32)
  %33 = load ptr, ptr %2, align 8, !tbaa !59
  %34 = getelementptr inbounds nuw %struct.Io_MvMod_t_, ptr %33, i32 0, i32 10
  %35 = load ptr, ptr %34, align 8, !tbaa !81
  call void @Vec_PtrFree(ptr noundef %35)
  %36 = load ptr, ptr %2, align 8, !tbaa !59
  %37 = getelementptr inbounds nuw %struct.Io_MvMod_t_, ptr %36, i32 0, i32 11
  %38 = load ptr, ptr %37, align 8, !tbaa !82
  call void @Vec_PtrFree(ptr noundef %38)
  %39 = load ptr, ptr %2, align 8, !tbaa !59
  %40 = icmp ne ptr %39, null
  br i1 %40, label %41, label %43

41:                                               ; preds = %1
  %42 = load ptr, ptr %2, align 8, !tbaa !59
  call void @free(ptr noundef %42) #12
  store ptr null, ptr %2, align 8, !tbaa !59
  br label %44

43:                                               ; preds = %1
  br label %44

44:                                               ; preds = %43, %41
  ret void
}

; Function Attrs: inlinehint nounwind uwtable
define internal ptr @Vec_PtrEntry(ptr noundef %0, i32 noundef %1) #4 {
  %3 = alloca ptr, align 8
  %4 = alloca i32, align 4
  store ptr %0, ptr %3, align 8, !tbaa !52
  store i32 %1, ptr %4, align 4, !tbaa !8
  %5 = load ptr, ptr %3, align 8, !tbaa !52
  %6 = getelementptr inbounds nuw %struct.Vec_Ptr_t_, ptr %5, i32 0, i32 2
  %7 = load ptr, ptr %6, align 8, !tbaa !119
  %8 = load i32, ptr %4, align 4, !tbaa !8
  %9 = sext i32 %8 to i64
  %10 = getelementptr inbounds ptr, ptr %7, i64 %9
  %11 = load ptr, ptr %10, align 8, !tbaa !120
  ret ptr %11
}

; Function Attrs: inlinehint nounwind uwtable
define internal i32 @Vec_PtrSize(ptr noundef %0) #4 {
  %2 = alloca ptr, align 8
  store ptr %0, ptr %2, align 8, !tbaa !52
  %3 = load ptr, ptr %2, align 8, !tbaa !52
  %4 = getelementptr inbounds nuw %struct.Vec_Ptr_t_, ptr %3, i32 0, i32 1
  %5 = load i32, ptr %4, align 4, !tbaa !117
  ret i32 %5
}

; Function Attrs: inlinehint nounwind uwtable
define internal void @Vec_PtrFree(ptr noundef %0) #4 {
  %2 = alloca ptr, align 8
  store ptr %0, ptr %2, align 8, !tbaa !52
  %3 = load ptr, ptr %2, align 8, !tbaa !52
  %4 = getelementptr inbounds nuw %struct.Vec_Ptr_t_, ptr %3, i32 0, i32 2
  %5 = load ptr, ptr %4, align 8, !tbaa !119
  %6 = icmp ne ptr %5, null
  br i1 %6, label %7, label %13

7:                                                ; preds = %1
  %8 = load ptr, ptr %2, align 8, !tbaa !52
  %9 = getelementptr inbounds nuw %struct.Vec_Ptr_t_, ptr %8, i32 0, i32 2
  %10 = load ptr, ptr %9, align 8, !tbaa !119
  call void @free(ptr noundef %10) #12
  %11 = load ptr, ptr %2, align 8, !tbaa !52
  %12 = getelementptr inbounds nuw %struct.Vec_Ptr_t_, ptr %11, i32 0, i32 2
  store ptr null, ptr %12, align 8, !tbaa !119
  br label %14

13:                                               ; preds = %1
  br label %14

14:                                               ; preds = %13, %7
  %15 = load ptr, ptr %2, align 8, !tbaa !52
  %16 = icmp ne ptr %15, null
  br i1 %16, label %17, label %19

17:                                               ; preds = %14
  %18 = load ptr, ptr %2, align 8, !tbaa !52
  call void @free(ptr noundef %18) #12
  store ptr null, ptr %2, align 8, !tbaa !52
  br label %20

19:                                               ; preds = %14
  br label %20

20:                                               ; preds = %19, %17
  ret void
}

; Function Attrs: nounwind uwtable
define internal void @Io_MvFree(ptr noundef %0) #0 {
  %2 = alloca ptr, align 8
  %3 = alloca ptr, align 8
  %4 = alloca i32, align 4
  store ptr %0, ptr %2, align 8, !tbaa !14
  call void @llvm.lifetime.start.p0(i64 8, ptr %3) #12
  call void @llvm.lifetime.start.p0(i64 4, ptr %4) #12
  %5 = load ptr, ptr %2, align 8, !tbaa !14
  %6 = getelementptr inbounds nuw %struct.Io_MvMan_t_, ptr %5, i32 0, i32 5
  %7 = load ptr, ptr %6, align 8, !tbaa !24
  %8 = icmp ne ptr %7, null
  br i1 %8, label %9, label %13

9:                                                ; preds = %1
  %10 = load ptr, ptr %2, align 8, !tbaa !14
  %11 = getelementptr inbounds nuw %struct.Io_MvMan_t_, ptr %10, i32 0, i32 5
  %12 = load ptr, ptr %11, align 8, !tbaa !24
  call void @Abc_DesFree(ptr noundef %12, ptr noundef null)
  br label %13

13:                                               ; preds = %9, %1
  %14 = load ptr, ptr %2, align 8, !tbaa !14
  %15 = getelementptr inbounds nuw %struct.Io_MvMan_t_, ptr %14, i32 0, i32 3
  %16 = load ptr, ptr %15, align 8, !tbaa !23
  %17 = icmp ne ptr %16, null
  br i1 %17, label %18, label %31

18:                                               ; preds = %13
  %19 = load ptr, ptr %2, align 8, !tbaa !14
  %20 = getelementptr inbounds nuw %struct.Io_MvMan_t_, ptr %19, i32 0, i32 3
  %21 = load ptr, ptr %20, align 8, !tbaa !23
  %22 = icmp ne ptr %21, null
  br i1 %22, label %23, label %29

23:                                               ; preds = %18
  %24 = load ptr, ptr %2, align 8, !tbaa !14
  %25 = getelementptr inbounds nuw %struct.Io_MvMan_t_, ptr %24, i32 0, i32 3
  %26 = load ptr, ptr %25, align 8, !tbaa !23
  call void @free(ptr noundef %26) #12
  %27 = load ptr, ptr %2, align 8, !tbaa !14
  %28 = getelementptr inbounds nuw %struct.Io_MvMan_t_, ptr %27, i32 0, i32 3
  store ptr null, ptr %28, align 8, !tbaa !23
  br label %30

29:                                               ; preds = %18
  br label %30

30:                                               ; preds = %29, %23
  br label %31

31:                                               ; preds = %30, %13
  %32 = load ptr, ptr %2, align 8, !tbaa !14
  %33 = getelementptr inbounds nuw %struct.Io_MvMan_t_, ptr %32, i32 0, i32 4
  %34 = load ptr, ptr %33, align 8, !tbaa !57
  %35 = icmp ne ptr %34, null
  br i1 %35, label %36, label %40

36:                                               ; preds = %31
  %37 = load ptr, ptr %2, align 8, !tbaa !14
  %38 = getelementptr inbounds nuw %struct.Io_MvMan_t_, ptr %37, i32 0, i32 4
  %39 = load ptr, ptr %38, align 8, !tbaa !57
  call void @Vec_PtrFree(ptr noundef %39)
  br label %40

40:                                               ; preds = %36, %31
  %41 = load ptr, ptr %2, align 8, !tbaa !14
  %42 = getelementptr inbounds nuw %struct.Io_MvMan_t_, ptr %41, i32 0, i32 7
  %43 = load ptr, ptr %42, align 8, !tbaa !58
  %44 = icmp ne ptr %43, null
  br i1 %44, label %45, label %70

45:                                               ; preds = %40
  store i32 0, ptr %4, align 4, !tbaa !8
  br label %46

46:                                               ; preds = %63, %45
  %47 = load i32, ptr %4, align 4, !tbaa !8
  %48 = load ptr, ptr %2, align 8, !tbaa !14
  %49 = getelementptr inbounds nuw %struct.Io_MvMan_t_, ptr %48, i32 0, i32 7
  %50 = load ptr, ptr %49, align 8, !tbaa !58
  %51 = call i32 @Vec_PtrSize(ptr noundef %50)
  %52 = icmp slt i32 %47, %51
  br i1 %52, label %53, label %59

53:                                               ; preds = %46
  %54 = load ptr, ptr %2, align 8, !tbaa !14
  %55 = getelementptr inbounds nuw %struct.Io_MvMan_t_, ptr %54, i32 0, i32 7
  %56 = load ptr, ptr %55, align 8, !tbaa !58
  %57 = load i32, ptr %4, align 4, !tbaa !8
  %58 = call ptr @Vec_PtrEntry(ptr noundef %56, i32 noundef %57)
  store ptr %58, ptr %3, align 8, !tbaa !59
  br label %59

59:                                               ; preds = %53, %46
  %60 = phi i1 [ false, %46 ], [ true, %53 ]
  br i1 %60, label %61, label %66

61:                                               ; preds = %59
  %62 = load ptr, ptr %3, align 8, !tbaa !59
  call void @Io_MvModFree(ptr noundef %62)
  br label %63

63:                                               ; preds = %61
  %64 = load i32, ptr %4, align 4, !tbaa !8
  %65 = add nsw i32 %64, 1
  store i32 %65, ptr %4, align 4, !tbaa !8
  br label %46, !llvm.loop !60

66:                                               ; preds = %59
  %67 = load ptr, ptr %2, align 8, !tbaa !14
  %68 = getelementptr inbounds nuw %struct.Io_MvMan_t_, ptr %67, i32 0, i32 7
  %69 = load ptr, ptr %68, align 8, !tbaa !58
  call void @Vec_PtrFree(ptr noundef %69)
  br label %70

70:                                               ; preds = %66, %40
  %71 = load ptr, ptr %2, align 8, !tbaa !14
  %72 = getelementptr inbounds nuw %struct.Io_MvMan_t_, ptr %71, i32 0, i32 9
  %73 = load ptr, ptr %72, align 8, !tbaa !61
  call void @Vec_PtrFree(ptr noundef %73)
  %74 = load ptr, ptr %2, align 8, !tbaa !14
  %75 = getelementptr inbounds nuw %struct.Io_MvMan_t_, ptr %74, i32 0, i32 10
  %76 = load ptr, ptr %75, align 8, !tbaa !62
  call void @Vec_PtrFree(ptr noundef %76)
  %77 = load ptr, ptr %2, align 8, !tbaa !14
  %78 = getelementptr inbounds nuw %struct.Io_MvMan_t_, ptr %77, i32 0, i32 11
  %79 = load ptr, ptr %78, align 8, !tbaa !63
  call void @Vec_StrFree(ptr noundef %79)
  %80 = load ptr, ptr %2, align 8, !tbaa !14
  %81 = icmp ne ptr %80, null
  br i1 %81, label %82, label %84

82:                                               ; preds = %70
  %83 = load ptr, ptr %2, align 8, !tbaa !14
  call void @free(ptr noundef %83) #12
  store ptr null, ptr %2, align 8, !tbaa !14
  br label %85

84:                                               ; preds = %70
  br label %85

85:                                               ; preds = %84, %82
  call void @llvm.lifetime.end.p0(i64 4, ptr %4) #12
  call void @llvm.lifetime.end.p0(i64 8, ptr %3) #12
  ret void
}