; Function Attrs: nounwind uwtable
define internal fastcc void @Io_MvFree(ptr noundef captures(none) %0) unnamed_addr #0 {
  %2 = getelementptr inbounds nuw i8, ptr %0, i64 32
  %3 = load ptr, ptr %2, align 8, !tbaa !32
  %.not = icmp eq ptr %3, null
  br i1 %.not, label %5, label %4

4:                                                ; preds = %1
  tail call void @Abc_DesFree(ptr noundef nonnull %3, ptr noundef null) #21
  br label %5

5:                                                ; preds = %4, %1
  %6 = getelementptr inbounds nuw i8, ptr %0, i64 16
  %7 = load ptr, ptr %6, align 8, !tbaa !31
  %.not24 = icmp eq ptr %7, null
  br i1 %.not24, label %9, label %8

8:                                                ; preds = %5
  tail call void @free(ptr noundef nonnull %7) #21
  store ptr null, ptr %6, align 8, !tbaa !31
  br label %9

9:                                                ; preds = %8, %5
  %10 = getelementptr inbounds nuw i8, ptr %0, i64 24
  %11 = load ptr, ptr %10, align 8, !tbaa !11
  %.not25 = icmp eq ptr %11, null
  br i1 %.not25, label %16, label %12

12:                                               ; preds = %9
  %13 = getelementptr inbounds nuw i8, ptr %11, i64 8
  %14 = load ptr, ptr %13, align 8, !tbaa !10
  %.not.i = icmp eq ptr %14, null
  br i1 %.not.i, label %Vec_PtrFree.exit, label %15

15:                                               ; preds = %12
  tail call void @free(ptr noundef nonnull %14) #21
  br label %Vec_PtrFree.exit

Vec_PtrFree.exit:                                 ; preds = %12, %15
  tail call void @free(ptr noundef nonnull %11) #21
  br label %16

16:                                               ; preds = %Vec_PtrFree.exit, %9
  %17 = getelementptr inbounds nuw i8, ptr %0, i64 48
  %18 = load ptr, ptr %17, align 8, !tbaa !18
  %.not26 = icmp eq ptr %18, null
  br i1 %.not26, label %92, label %.preheader

.preheader:                                       ; preds = %16
  %19 = getelementptr i8, ptr %18, i64 4
  %.val36 = load i32, ptr %19, align 4, !tbaa !3
  %20 = icmp sgt i32 %.val36, 0
  br i1 %20, label %.lr.ph, label %.critedge

.lr.ph:                                           ; preds = %.preheader, %Io_MvModFree.exit
  %indvars.iv = phi i64 [ %indvars.iv.next, %Io_MvModFree.exit ], [ 0, %.preheader ]
  %21 = phi ptr [ %85, %Io_MvModFree.exit ], [ %18, %.preheader ]
  %22 = getelementptr i8, ptr %21, i64 8
  %.val28 = load ptr, ptr %22, align 8, !tbaa !10
  %23 = getelementptr inbounds nuw ptr, ptr %.val28, i64 %indvars.iv
  %24 = load ptr, ptr %23, align 8, !tbaa !36
  %25 = getelementptr inbounds nuw i8, ptr %24, i64 96
  %26 = load ptr, ptr %25, align 8, !tbaa !47
  %27 = getelementptr inbounds nuw i8, ptr %26, i64 8
  %28 = load ptr, ptr %27, align 8, !tbaa !10
  %.not.i.i = icmp eq ptr %28, null
  br i1 %.not.i.i, label %Vec_PtrFree.exit.i, label %29

29:                                               ; preds = %.lr.ph
  tail call void @free(ptr noundef nonnull %28) #21
  br label %Vec_PtrFree.exit.i

Vec_PtrFree.exit.i:                               ; preds = %29, %.lr.ph
  tail call void @free(ptr noundef nonnull %26) #21
  %30 = getelementptr inbounds nuw i8, ptr %24, i64 8
  %31 = load ptr, ptr %30, align 8, !tbaa !51
  %32 = getelementptr inbounds nuw i8, ptr %31, i64 8
  %33 = load ptr, ptr %32, align 8, !tbaa !10
  %.not.i14.i = icmp eq ptr %33, null
  br i1 %.not.i14.i, label %Vec_PtrFree.exit15.i, label %34

34:                                               ; preds = %Vec_PtrFree.exit.i
  tail call void @free(ptr noundef nonnull %33) #21
  br label %Vec_PtrFree.exit15.i

Vec_PtrFree.exit15.i:                             ; preds = %34, %Vec_PtrFree.exit.i
  tail call void @free(ptr noundef nonnull %31) #21
  %35 = getelementptr inbounds nuw i8, ptr %24, i64 16
  %36 = load ptr, ptr %35, align 8, !tbaa !52
  %37 = getelementptr inbounds nuw i8, ptr %36, i64 8
  %38 = load ptr, ptr %37, align 8, !tbaa !10
  %.not.i16.i = icmp eq ptr %38, null
  br i1 %.not.i16.i, label %Vec_PtrFree.exit17.i, label %39

39:                                               ; preds = %Vec_PtrFree.exit15.i
  tail call void @free(ptr noundef nonnull %38) #21
  br label %Vec_PtrFree.exit17.i

Vec_PtrFree.exit17.i:                             ; preds = %39, %Vec_PtrFree.exit15.i
  tail call void @free(ptr noundef nonnull %36) #21
  %40 = getelementptr inbounds nuw i8, ptr %24, i64 24
  %41 = load ptr, ptr %40, align 8, !tbaa !48
  %42 = getelementptr inbounds nuw i8, ptr %41, i64 8
  %43 = load ptr, ptr %42, align 8, !tbaa !10
  %.not.i18.i = icmp eq ptr %43, null
  br i1 %.not.i18.i, label %Vec_PtrFree.exit19.i, label %44

44:                                               ; preds = %Vec_PtrFree.exit17.i
  tail call void @free(ptr noundef nonnull %43) #21
  br label %Vec_PtrFree.exit19.i

Vec_PtrFree.exit19.i:                             ; preds = %44, %Vec_PtrFree.exit17.i
  tail call void @free(ptr noundef nonnull %41) #21
  %45 = getelementptr inbounds nuw i8, ptr %24, i64 32
  %46 = load ptr, ptr %45, align 8, !tbaa !49
  %47 = getelementptr inbounds nuw i8, ptr %46, i64 8
  %48 = load ptr, ptr %47, align 8, !tbaa !10
  %.not.i20.i = icmp eq ptr %48, null
  br i1 %.not.i20.i, label %Vec_PtrFree.exit21.i, label %49

49:                                               ; preds = %Vec_PtrFree.exit19.i
  tail call void @free(ptr noundef nonnull %48) #21
  br label %Vec_PtrFree.exit21.i

Vec_PtrFree.exit21.i:                             ; preds = %49, %Vec_PtrFree.exit19.i
  tail call void @free(ptr noundef nonnull %46) #21
  %50 = getelementptr inbounds nuw i8, ptr %24, i64 40
  %51 = load ptr, ptr %50, align 8, !tbaa !50
  %52 = getelementptr inbounds nuw i8, ptr %51, i64 8
  %53 = load ptr, ptr %52, align 8, !tbaa !10
  %.not.i22.i = icmp eq ptr %53, null
  br i1 %.not.i22.i, label %Vec_PtrFree.exit23.i, label %54

54:                                               ; preds = %Vec_PtrFree.exit21.i
  tail call void @free(ptr noundef nonnull %53) #21
  br label %Vec_PtrFree.exit23.i

Vec_PtrFree.exit23.i:                             ; preds = %54, %Vec_PtrFree.exit21.i
  tail call void @free(ptr noundef nonnull %51) #21
  %55 = getelementptr inbounds nuw i8, ptr %24, i64 48
  %56 = load ptr, ptr %55, align 8, !tbaa !42
  %57 = getelementptr inbounds nuw i8, ptr %56, i64 8
  %58 = load ptr, ptr %57, align 8, !tbaa !10
  %.not.i24.i = icmp eq ptr %58, null
  br i1 %.not.i24.i, label %Vec_PtrFree.exit25.i, label %59

59:                                               ; preds = %Vec_PtrFree.exit23.i
  tail call void @free(ptr noundef nonnull %58) #21
  br label %Vec_PtrFree.exit25.i

Vec_PtrFree.exit25.i:                             ; preds = %59, %Vec_PtrFree.exit23.i
  tail call void @free(ptr noundef nonnull %56) #21
  %60 = getelementptr inbounds nuw i8, ptr %24, i64 56
  %61 = load ptr, ptr %60, align 8, !tbaa !53
  %62 = getelementptr inbounds nuw i8, ptr %61, i64 8
  %63 = load ptr, ptr %62, align 8, !tbaa !10
  %.not.i26.i = icmp eq ptr %63, null
  br i1 %.not.i26.i, label %Vec_PtrFree.exit27.i, label %64

64:                                               ; preds = %Vec_PtrFree.exit25.i
  tail call void @free(ptr noundef nonnull %63) #21
  br label %Vec_PtrFree.exit27.i

Vec_PtrFree.exit27.i:                             ; preds = %64, %Vec_PtrFree.exit25.i
  tail call void @free(ptr noundef nonnull %61) #21
  %65 = getelementptr inbounds nuw i8, ptr %24, i64 64
  %66 = load ptr, ptr %65, align 8, !tbaa !54
  %67 = getelementptr inbounds nuw i8, ptr %66, i64 8
  %68 = load ptr, ptr %67, align 8, !tbaa !10
  %.not.i28.i = icmp eq ptr %68, null
  br i1 %.not.i28.i, label %Vec_PtrFree.exit29.i, label %69

69:                                               ; preds = %Vec_PtrFree.exit27.i
  tail call void @free(ptr noundef nonnull %68) #21
  br label %Vec_PtrFree.exit29.i

Vec_PtrFree.exit29.i:                             ; preds = %69, %Vec_PtrFree.exit27.i
  tail call void @free(ptr noundef nonnull %66) #21
  %70 = getelementptr inbounds nuw i8, ptr %24, i64 72
  %71 = load ptr, ptr %70, align 8, !tbaa !55
  %72 = getelementptr inbounds nuw i8, ptr %71, i64 8
  %73 = load ptr, ptr %72, align 8, !tbaa !10
  %.not.i30.i = icmp eq ptr %73, null
  br i1 %.not.i30.i, label %Vec_PtrFree.exit31.i, label %74

74:                                               ; preds = %Vec_PtrFree.exit29.i
  tail call void @free(ptr noundef nonnull %73) #21
  br label %Vec_PtrFree.exit31.i

Vec_PtrFree.exit31.i:                             ; preds = %74, %Vec_PtrFree.exit29.i
  tail call void @free(ptr noundef nonnull %71) #21
  %75 = getelementptr inbounds nuw i8, ptr %24, i64 80
  %76 = load ptr, ptr %75, align 8, !tbaa !56
  %77 = getelementptr inbounds nuw i8, ptr %76, i64 8
  %78 = load ptr, ptr %77, align 8, !tbaa !10
  %.not.i32.i = icmp eq ptr %78, null
  br i1 %.not.i32.i, label %Vec_PtrFree.exit33.i, label %79

79:                                               ; preds = %Vec_PtrFree.exit31.i
  tail call void @free(ptr noundef nonnull %78) #21
  br label %Vec_PtrFree.exit33.i

Vec_PtrFree.exit33.i:                             ; preds = %79, %Vec_PtrFree.exit31.i
  tail call void @free(ptr noundef nonnull %76) #21
  %80 = getelementptr inbounds nuw i8, ptr %24, i64 88
  %81 = load ptr, ptr %80, align 8, !tbaa !57
  %82 = getelementptr inbounds nuw i8, ptr %81, i64 8
  %83 = load ptr, ptr %82, align 8, !tbaa !10
  %.not.i34.i = icmp eq ptr %83, null
  br i1 %.not.i34.i, label %Io_MvModFree.exit, label %84

84:                                               ; preds = %Vec_PtrFree.exit33.i
  tail call void @free(ptr noundef nonnull %83) #21
  br label %Io_MvModFree.exit

Io_MvModFree.exit:                                ; preds = %Vec_PtrFree.exit33.i, %84
  tail call void @free(ptr noundef nonnull %81) #21
  tail call void @free(ptr noundef nonnull %24) #21
  %indvars.iv.next = add nuw nsw i64 %indvars.iv, 1
  %85 = load ptr, ptr %17, align 8, !tbaa !18
  %86 = getelementptr i8, ptr %85, i64 4
  %.val = load i32, ptr %86, align 4, !tbaa !3
  %87 = sext i32 %.val to i64
  %88 = icmp slt i64 %indvars.iv.next, %87
  br i1 %88, label %.lr.ph, label %.critedge, !llvm.loop !171

.critedge:                                        ; preds = %Io_MvModFree.exit, %.preheader
  %.lcssa = phi ptr [ %18, %.preheader ], [ %85, %Io_MvModFree.exit ]
  %89 = getelementptr inbounds nuw i8, ptr %.lcssa, i64 8
  %90 = load ptr, ptr %89, align 8, !tbaa !10
  %.not.i29 = icmp eq ptr %90, null
  br i1 %.not.i29, label %Vec_PtrFree.exit30, label %91

91:                                               ; preds = %.critedge
  tail call void @free(ptr noundef nonnull %90) #21
  br label %Vec_PtrFree.exit30

Vec_PtrFree.exit30:                               ; preds = %.critedge, %91
  tail call void @free(ptr noundef nonnull %.lcssa) #21
  br label %92

92:                                               ; preds = %Vec_PtrFree.exit30, %16
  %93 = getelementptr inbounds nuw i8, ptr %0, i64 64
  %94 = load ptr, ptr %93, align 8, !tbaa !19
  %95 = getelementptr inbounds nuw i8, ptr %94, i64 8
  %96 = load ptr, ptr %95, align 8, !tbaa !10
  %.not.i31 = icmp eq ptr %96, null
  br i1 %.not.i31, label %Vec_PtrFree.exit32, label %97

97:                                               ; preds = %92
  tail call void @free(ptr noundef nonnull %96) #21
  br label %Vec_PtrFree.exit32

Vec_PtrFree.exit32:                               ; preds = %92, %97
  tail call void @free(ptr noundef nonnull %94) #21
  %98 = getelementptr inbounds nuw i8, ptr %0, i64 72
  %99 = load ptr, ptr %98, align 8, !tbaa !20
  %100 = getelementptr inbounds nuw i8, ptr %99, i64 8
  %101 = load ptr, ptr %100, align 8, !tbaa !10
  %.not.i33 = icmp eq ptr %101, null
  br i1 %.not.i33, label %Vec_PtrFree.exit34, label %102

102:                                              ; preds = %Vec_PtrFree.exit32
  tail call void @free(ptr noundef nonnull %101) #21
  br label %Vec_PtrFree.exit34

Vec_PtrFree.exit34:                               ; preds = %Vec_PtrFree.exit32, %102
  tail call void @free(ptr noundef nonnull %99) #21
  %103 = getelementptr inbounds nuw i8, ptr %0, i64 80
  %104 = load ptr, ptr %103, align 8, !tbaa !25
  %105 = getelementptr inbounds nuw i8, ptr %104, i64 8
  %106 = load ptr, ptr %105, align 8, !tbaa !24
  %.not.i35 = icmp eq ptr %106, null
  br i1 %.not.i35, label %108, label %107

107:                                              ; preds = %Vec_PtrFree.exit34
  tail call void @free(ptr noundef nonnull %106) #21
  br label %108

108:                                              ; preds = %Vec_PtrFree.exit34, %107
  tail call void @free(ptr noundef nonnull %104) #21
  tail call void @free(ptr noundef nonnull %0) #21
  ret void
}